(dp0
S'hal.c_zon'
p1
(dp2
S'Max'
p3
ccopy_reg
_reconstructor
p4
(cmpcpy.variables
Static
p5
c__builtin__
object
p6
Ntp7
Rp8
(dp9
S'variability'
p10
S'Static'
p11
sS'quantity_name'
p12
S'HeatCapacityCoefficient'
p13
sS'name'
p14
S'hal.c_zon_est'
p15
sS'base_unit'
p16
cmpcpy.units
J_m2K
p17
sS'display_unit'
p18
g4
(g17
g6
Ntp19
Rp20
(dp21
g14
S'J/(m2.K)'
p22
sbsS'data'
p23
F3000.0
sbsS'Est'
p24
g4
(g5
g6
Ntp25
Rp26
(dp27
g10
g11
sg12
g13
sg14
S'hal.c_zon_est'
p28
sg16
g17
sg18
g4
(g17
g6
Ntp29
Rp30
(dp31
g14
g22
sbsg23
F2999.99909363618
sbsS'Cov'
p32
g4
(g5
g6
Ntp33
Rp34
(dp35
g10
g11
sg12
g13
sg14
S'hal.c_zon_est'
p36
sg16
g17
sg18
g4
(g17
g6
Ntp37
Rp38
(dp39
g14
g22
sbsg23
F0.02
sbsS'Min'
p40
g4
(g5
g6
Ntp41
Rp42
(dp43
g10
g11
sg12
g13
sg14
S'hal.c_zon_est'
p44
sg16
g17
sg18
g4
(g17
g6
Ntp45
Rp46
(dp47
g14
g22
sbsg23
F2000.0
sbssS'adjeas.r_adj'
p48
(dp49
g3
g4
(g5
g6
Ntp50
Rp51
(dp52
g10
g11
sg12
S'HeatResistanceCoefficient'
p53
sg14
S'adjeas.r_adj_est'
p54
sg16
cmpcpy.units
m2K_W
p55
sg18
g4
(g55
g6
Ntp56
Rp57
(dp58
g14
S'(m2.K)/W'
p59
sbsg23
F0.9
sbsg24
g4
(g5
g6
Ntp60
Rp61
(dp62
g10
g11
sg12
g53
sg14
S'adjeas.r_adj_est'
p63
sg16
g55
sg18
g4
(g55
g6
Ntp64
Rp65
(dp66
g14
g59
sbsg23
F0.155526277961045
sbsg32
g4
(g5
g6
Ntp67
Rp68
(dp69
g10
g11
sg12
g53
sg14
S'adjeas.r_adj_est'
p70
sg16
g55
sg18
g4
(g55
g6
Ntp71
Rp72
(dp73
g14
g59
sbsg23
F0.02
sbsg40
g4
(g5
g6
Ntp74
Rp75
(dp76
g10
g11
sg12
g53
sg14
S'adjeas.r_adj_est'
p77
sg16
g55
sg18
g4
(g55
g6
Ntp78
Rp79
(dp80
g14
g59
sbsg23
F0.05
sbssS'eas.r_int'
p81
(dp82
g3
g4
(g5
g6
Ntp83
Rp84
(dp85
g10
g11
sg12
g53
sg14
S'eas.r_int_est'
p86
sg16
g55
sg18
g4
(g55
g6
Ntp87
Rp88
(dp89
g14
g59
sbsg23
F0.4
sbsg24
g4
(g5
g6
Ntp90
Rp91
(dp92
g10
g11
sg12
g53
sg14
S'eas.r_int_est'
p93
sg16
g55
sg18
g4
(g55
g6
Ntp94
Rp95
(dp96
g14
g59
sbsg23
F0.110329076017532
sbsg32
g4
(g5
g6
Ntp97
Rp98
(dp99
g10
g11
sg12
g53
sg14
S'eas.r_int_est'
p100
sg16
g55
sg18
g4
(g55
g6
Ntp101
Rp102
(dp103
g14
g59
sbsg23
F0.02
sbsg40
g4
(g5
g6
Ntp104
Rp105
(dp106
g10
g11
sg12
g53
sg14
S'eas.r_int_est'
p107
sg16
g55
sg18
g4
(g55
g6
Ntp108
Rp109
(dp110
g14
g59
sbsg23
F0.05
sbssS'eas.c_zon'
p111
(dp112
g3
g4
(g5
g6
Ntp113
Rp114
(dp115
g10
g11
sg12
g13
sg14
S'eas.c_zon_est'
p116
sg16
g17
sg18
g4
(g17
g6
Ntp117
Rp118
(dp119
g14
g22
sbsg23
F3000.0
sbsg24
g4
(g5
g6
Ntp120
Rp121
(dp122
g10
g11
sg12
g13
sg14
S'eas.c_zon_est'
p123
sg16
g17
sg18
g4
(g17
g6
Ntp124
Rp125
(dp126
g14
g22
sbsg23
F2999.99891976741
sbsg32
g4
(g5
g6
Ntp127
Rp128
(dp129
g10
g11
sg12
g13
sg14
S'eas.c_zon_est'
p130
sg16
g17
sg18
g4
(g17
g6
Ntp131
Rp132
(dp133
g14
g22
sbsg23
F0.02
sbsg40
g4
(g5
g6
Ntp134
Rp135
(dp136
g10
g11
sg12
g13
sg14
S'eas.c_zon_est'
p137
sg16
g17
sg18
g4
(g17
g6
Ntp138
Rp139
(dp140
g14
g22
sbsg23
F2000.0
sbssS'wes.c_zon'
p141
(dp142
g3
g4
(g5
g6
Ntp143
Rp144
(dp145
g10
g11
sg12
g13
sg14
S'wes.c_zon_est'
p146
sg16
g17
sg18
g4
(g17
g6
Ntp147
Rp148
(dp149
g14
g22
sbsg23
F3000.0
sbsg24
g4
(g5
g6
Ntp150
Rp151
(dp152
g10
g11
sg12
g13
sg14
S'wes.c_zon_est'
p153
sg16
g17
sg18
g4
(g17
g6
Ntp154
Rp155
(dp156
g14
g22
sbsg23
F2999.99980749927
sbsg32
g4
(g5
g6
Ntp157
Rp158
(dp159
g10
g11
sg12
g13
sg14
S'wes.c_zon_est'
p160
sg16
g17
sg18
g4
(g17
g6
Ntp161
Rp162
(dp163
g14
g22
sbsg23
F0.02
sbsg40
g4
(g5
g6
Ntp164
Rp165
(dp166
g10
g11
sg12
g13
sg14
S'wes.c_zon_est'
p167
sg16
g17
sg18
g4
(g17
g6
Ntp168
Rp169
(dp170
g14
g22
sbsg23
F2000.0
sbssS'winwes.g'
p171
(dp172
g3
g4
(g5
g6
Ntp173
Rp174
(dp175
g10
g11
sg12
S'DimensionlessRatio'
p176
sg14
S'winwes.g_est'
p177
sg16
cmpcpy.units
unit1
p178
sg18
g4
(g178
g6
Ntp179
Rp180
(dp181
g14
S'1'
p182
sbsg23
F1.0
sbsg24
g4
(g5
g6
Ntp183
Rp184
(dp185
g10
g11
sg12
g176
sg14
S'winwes.g_est'
p186
sg16
g178
sg18
g4
(g178
g6
Ntp187
Rp188
(dp189
g14
g182
sbsg23
F0.124884207226756
sbsg32
g4
(g5
g6
Ntp190
Rp191
(dp192
g10
g11
sg12
g176
sg14
S'winwes.g_est'
p193
sg16
g178
sg18
g4
(g178
g6
Ntp194
Rp195
(dp196
g14
g182
sbsg23
F0.02
sbsg40
g4
(g5
g6
Ntp197
Rp198
(dp199
g10
g11
sg12
g176
sg14
S'winwes.g_est'
p200
sg16
g178
sg18
g4
(g178
g6
Ntp201
Rp202
(dp203
g14
g182
sbsg23
F0.0
sbssS'exteas.r_out'
p204
(dp205
g3
g4
(g5
g6
Ntp206
Rp207
(dp208
g10
g11
sg12
g53
sg14
S'exteas.r_out_est'
p209
sg16
g55
sg18
g4
(g55
g6
Ntp210
Rp211
(dp212
g14
g59
sbsg23
F0.3
sbsg24
g4
(g5
g6
Ntp213
Rp214
(dp215
g10
g11
sg12
g53
sg14
S'exteas.r_out_est'
p216
sg16
g55
sg18
g4
(g55
g6
Ntp217
Rp218
(dp219
g14
g59
sbsg23
F0.299999999689132
sbsg32
g4
(g5
g6
Ntp220
Rp221
(dp222
g10
g11
sg12
g53
sg14
S'exteas.r_out_est'
p223
sg16
g55
sg18
g4
(g55
g6
Ntp224
Rp225
(dp226
g14
g59
sbsg23
F0.02
sbsg40
g4
(g5
g6
Ntp227
Rp228
(dp229
g10
g11
sg12
g53
sg14
S'exteas.r_out_est'
p230
sg16
g55
sg18
g4
(g55
g6
Ntp231
Rp232
(dp233
g14
g59
sbsg23
F0.05
sbssS'hal.c_int'
p234
(dp235
g3
g4
(g5
g6
Ntp236
Rp237
(dp238
g10
g11
sg12
g13
sg14
S'hal.c_int_est'
p239
sg16
g17
sg18
g4
(g17
g6
Ntp240
Rp241
(dp242
g14
g22
sbsg23
F150000.0
sbsg24
g4
(g5
g6
Ntp243
Rp244
(dp245
g10
g11
sg12
g13
sg14
S'hal.c_int_est'
p246
sg16
g17
sg18
g4
(g17
g6
Ntp247
Rp248
(dp249
g14
g22
sbsg23
F50000.0
sbsg32
g4
(g5
g6
Ntp250
Rp251
(dp252
g10
g11
sg12
g13
sg14
S'hal.c_int_est'
p253
sg16
g17
sg18
g4
(g17
g6
Ntp254
Rp255
(dp256
g14
g22
sbsg23
F0.02
sbsg40
g4
(g5
g6
Ntp257
Rp258
(dp259
g10
g11
sg12
g13
sg14
S'hal.c_int_est'
p260
sg16
g17
sg18
g4
(g17
g6
Ntp261
Rp262
(dp263
g14
g22
sbsg23
F50000.0
sbssS'wineas.g'
p264
(dp265
g3
g4
(g5
g6
Ntp266
Rp267
(dp268
g10
g11
sg12
g176
sg14
S'wineas.g_est'
p269
sg16
g178
sg18
g4
(g178
g6
Ntp270
Rp271
(dp272
g14
g182
sbsg23
F1.0
sbsg24
g4
(g5
g6
Ntp273
Rp274
(dp275
g10
g11
sg12
g176
sg14
S'wineas.g_est'
p276
sg16
g178
sg18
g4
(g178
g6
Ntp277
Rp278
(dp279
g14
g182
sbsg23
F0.285610274714932
sbsg32
g4
(g5
g6
Ntp280
Rp281
(dp282
g10
g11
sg12
g176
sg14
S'wineas.g_est'
p283
sg16
g178
sg18
g4
(g178
g6
Ntp284
Rp285
(dp286
g14
g182
sbsg23
F0.02
sbsg40
g4
(g5
g6
Ntp287
Rp288
(dp289
g10
g11
sg12
g176
sg14
S'wineas.g_est'
p290
sg16
g178
sg18
g4
(g178
g6
Ntp291
Rp292
(dp293
g14
g182
sbsg23
F0.0
sbssS'adjwes.c_bou'
p294
(dp295
g3
g4
(g5
g6
Ntp296
Rp297
(dp298
g10
g11
sg12
g13
sg14
S'adjwes.c_bou_est'
p299
sg16
g17
sg18
g4
(g17
g6
Ntp300
Rp301
(dp302
g14
g22
sbsg23
F25000.0
sbsg24
g4
(g5
g6
Ntp303
Rp304
(dp305
g10
g11
sg12
g13
sg14
S'adjwes.c_bou_est'
p306
sg16
g17
sg18
g4
(g17
g6
Ntp307
Rp308
(dp309
g14
g22
sbsg23
F19571.2678296309
sbsg32
g4
(g5
g6
Ntp310
Rp311
(dp312
g10
g11
sg12
g13
sg14
S'adjwes.c_bou_est'
p313
sg16
g17
sg18
g4
(g17
g6
Ntp314
Rp315
(dp316
g14
g22
sbsg23
F0.02
sbsg40
g4
(g5
g6
Ntp317
Rp318
(dp319
g10
g11
sg12
g13
sg14
S'adjwes.c_bou_est'
p320
sg16
g17
sg18
g4
(g17
g6
Ntp321
Rp322
(dp323
g14
g22
sbsg23
F5000.0
sbssS'extwes.r_out'
p324
(dp325
g3
g4
(g5
g6
Ntp326
Rp327
(dp328
g10
g11
sg12
g53
sg14
S'extwes.r_out_est'
p329
sg16
g55
sg18
g4
(g55
g6
Ntp330
Rp331
(dp332
g14
g59
sbsg23
F0.3
sbsg24
g4
(g5
g6
Ntp333
Rp334
(dp335
g10
g11
sg12
g53
sg14
S'extwes.r_out_est'
p336
sg16
g55
sg18
g4
(g55
g6
Ntp337
Rp338
(dp339
g14
g59
sbsg23
F0.299999999602581
sbsg32
g4
(g5
g6
Ntp340
Rp341
(dp342
g10
g11
sg12
g53
sg14
S'extwes.r_out_est'
p343
sg16
g55
sg18
g4
(g55
g6
Ntp344
Rp345
(dp346
g14
g59
sbsg23
F0.02
sbsg40
g4
(g5
g6
Ntp347
Rp348
(dp349
g10
g11
sg12
g53
sg14
S'extwes.r_out_est'
p350
sg16
g55
sg18
g4
(g55
g6
Ntp351
Rp352
(dp353
g14
g59
sbsg23
F0.05
sbssS'exteas.r_zon'
p354
(dp355
g3
g4
(g5
g6
Ntp356
Rp357
(dp358
g10
g11
sg12
g53
sg14
S'exteas.r_zon_est'
p359
sg16
g55
sg18
g4
(g55
g6
Ntp360
Rp361
(dp362
g14
g59
sbsg23
F3.0
sbsg24
g4
(g5
g6
Ntp363
Rp364
(dp365
g10
g11
sg12
g53
sg14
S'exteas.r_zon_est'
p366
sg16
g55
sg18
g4
(g55
g6
Ntp367
Rp368
(dp369
g14
g59
sbsg23
F1.44679759179903
sbsg32
g4
(g5
g6
Ntp370
Rp371
(dp372
g10
g11
sg12
g53
sg14
S'exteas.r_zon_est'
p373
sg16
g55
sg18
g4
(g55
g6
Ntp374
Rp375
(dp376
g14
g59
sbsg23
F0.02
sbsg40
g4
(g5
g6
Ntp377
Rp378
(dp379
g10
g11
sg12
g53
sg14
S'exteas.r_zon_est'
p380
sg16
g55
sg18
g4
(g55
g6
Ntp381
Rp382
(dp383
g14
g59
sbsg23
F1.0
sbssS'extwes.r_zon'
p384
(dp385
g3
g4
(g5
g6
Ntp386
Rp387
(dp388
g10
g11
sg12
g53
sg14
S'extwes.r_zon_est'
p389
sg16
g55
sg18
g4
(g55
g6
Ntp390
Rp391
(dp392
g14
g59
sbsg23
F3.0
sbsg24
g4
(g5
g6
Ntp393
Rp394
(dp395
g10
g11
sg12
g53
sg14
S'extwes.r_zon_est'
p396
sg16
g55
sg18
g4
(g55
g6
Ntp397
Rp398
(dp399
g14
g59
sbsg23
F2.19986712324532
sbsg32
g4
(g5
g6
Ntp400
Rp401
(dp402
g10
g11
sg12
g53
sg14
S'extwes.r_zon_est'
p403
sg16
g55
sg18
g4
(g55
g6
Ntp404
Rp405
(dp406
g14
g59
sbsg23
F0.02
sbsg40
g4
(g5
g6
Ntp407
Rp408
(dp409
g10
g11
sg12
g53
sg14
S'extwes.r_zon_est'
p410
sg16
g55
sg18
g4
(g55
g6
Ntp411
Rp412
(dp413
g14
g59
sbsg23
F1.0
sbssS'wes.r_int'
p414
(dp415
g3
g4
(g5
g6
Ntp416
Rp417
(dp418
g10
g11
sg12
g53
sg14
S'wes.r_int_est'
p419
sg16
g55
sg18
g4
(g55
g6
Ntp420
Rp421
(dp422
g14
g59
sbsg23
F0.4
sbsg24
g4
(g5
g6
Ntp423
Rp424
(dp425
g10
g11
sg12
g53
sg14
S'wes.r_int_est'
p426
sg16
g55
sg18
g4
(g55
g6
Ntp427
Rp428
(dp429
g14
g59
sbsg23
F0.149620007652413
sbsg32
g4
(g5
g6
Ntp430
Rp431
(dp432
g10
g11
sg12
g53
sg14
S'wes.r_int_est'
p433
sg16
g55
sg18
g4
(g55
g6
Ntp434
Rp435
(dp436
g14
g59
sbsg23
F0.02
sbsg40
g4
(g5
g6
Ntp437
Rp438
(dp439
g10
g11
sg12
g53
sg14
S'wes.r_int_est'
p440
sg16
g55
sg18
g4
(g55
g6
Ntp441
Rp442
(dp443
g14
g59
sbsg23
F0.05
sbssS'wes.c_int'
p444
(dp445
g3
g4
(g5
g6
Ntp446
Rp447
(dp448
g10
g11
sg12
g13
sg14
S'wes.c_int_est'
p449
sg16
g17
sg18
g4
(g17
g6
Ntp450
Rp451
(dp452
g14
g22
sbsg23
F300000.0
sbsg24
g4
(g5
g6
Ntp453
Rp454
(dp455
g10
g11
sg12
g13
sg14
S'wes.c_int_est'
p456
sg16
g17
sg18
g4
(g17
g6
Ntp457
Rp458
(dp459
g14
g22
sbsg23
F70325.6266181595
sbsg32
g4
(g5
g6
Ntp460
Rp461
(dp462
g10
g11
sg12
g13
sg14
S'wes.c_int_est'
p463
sg16
g17
sg18
g4
(g17
g6
Ntp464
Rp465
(dp466
g14
g22
sbsg23
F0.02
sbsg40
g4
(g5
g6
Ntp467
Rp468
(dp469
g10
g11
sg12
g13
sg14
S'wes.c_int_est'
p470
sg16
g17
sg18
g4
(g17
g6
Ntp471
Rp472
(dp473
g14
g22
sbsg23
F50000.0
sbssS'exteas.c_bou'
p474
(dp475
g3
g4
(g5
g6
Ntp476
Rp477
(dp478
g10
g11
sg12
g13
sg14
S'exteas.c_bou_est'
p479
sg16
g17
sg18
g4
(g17
g6
Ntp480
Rp481
(dp482
g14
g22
sbsg23
F40000.0
sbsg24
g4
(g5
g6
Ntp483
Rp484
(dp485
g10
g11
sg12
g13
sg14
S'exteas.c_bou_est'
p486
sg16
g17
sg18
g4
(g17
g6
Ntp487
Rp488
(dp489
g14
g22
sbsg23
F39999.9999377089
sbsg32
g4
(g5
g6
Ntp490
Rp491
(dp492
g10
g11
sg12
g13
sg14
S'exteas.c_bou_est'
p493
sg16
g17
sg18
g4
(g17
g6
Ntp494
Rp495
(dp496
g14
g22
sbsg23
F0.02
sbsg40
g4
(g5
g6
Ntp497
Rp498
(dp499
g10
g11
sg12
g13
sg14
S'exteas.c_bou_est'
p500
sg16
g17
sg18
g4
(g17
g6
Ntp501
Rp502
(dp503
g14
g22
sbsg23
F5000.0
sbssS'exteas.abs'
p504
(dp505
g3
g4
(g5
g6
Ntp506
Rp507
(dp508
g10
g11
sg12
g176
sg14
S'exteas.abs_est'
p509
sg16
g178
sg18
g4
(g178
g6
Ntp510
Rp511
(dp512
g14
g182
sbsg23
F1.0
sbsg24
g4
(g5
g6
Ntp513
Rp514
(dp515
g10
g11
sg12
g176
sg14
S'exteas.abs_est'
p516
sg16
g178
sg18
g4
(g178
g6
Ntp517
Rp518
(dp519
g14
g182
sbsg23
F0.999999964599163
sbsg32
g4
(g5
g6
Ntp520
Rp521
(dp522
g10
g11
sg12
g176
sg14
S'exteas.abs_est'
p523
sg16
g178
sg18
g4
(g178
g6
Ntp524
Rp525
(dp526
g14
g182
sbsg23
F0.02
sbsg40
g4
(g5
g6
Ntp527
Rp528
(dp529
g10
g11
sg12
g176
sg14
S'exteas.abs_est'
p530
sg16
g178
sg18
g4
(g178
g6
Ntp531
Rp532
(dp533
g14
g182
sbsg23
F0.0
sbssS'adjeas.r_zon'
p534
(dp535
g3
g4
(g5
g6
Ntp536
Rp537
(dp538
g10
g11
sg12
g53
sg14
S'adjeas.r_zon_est'
p539
sg16
g55
sg18
g4
(g55
g6
Ntp540
Rp541
(dp542
g14
g59
sbsg23
F0.9
sbsg24
g4
(g5
g6
Ntp543
Rp544
(dp545
g10
g11
sg12
g53
sg14
S'adjeas.r_zon_est'
p546
sg16
g55
sg18
g4
(g55
g6
Ntp547
Rp548
(dp549
g14
g59
sbsg23
F0.163314334767505
sbsg32
g4
(g5
g6
Ntp550
Rp551
(dp552
g10
g11
sg12
g53
sg14
S'adjeas.r_zon_est'
p553
sg16
g55
sg18
g4
(g55
g6
Ntp554
Rp555
(dp556
g14
g59
sbsg23
F0.02
sbsg40
g4
(g5
g6
Ntp557
Rp558
(dp559
g10
g11
sg12
g53
sg14
S'adjeas.r_zon_est'
p560
sg16
g55
sg18
g4
(g55
g6
Ntp561
Rp562
(dp563
g14
g59
sbsg23
F0.05
sbssS'extwes.c_bou'
p564
(dp565
g3
g4
(g5
g6
Ntp566
Rp567
(dp568
g10
g11
sg12
g13
sg14
S'extwes.c_bou_est'
p569
sg16
g17
sg18
g4
(g17
g6
Ntp570
Rp571
(dp572
g14
g22
sbsg23
F40000.0
sbsg24
g4
(g5
g6
Ntp573
Rp574
(dp575
g10
g11
sg12
g13
sg14
S'extwes.c_bou_est'
p576
sg16
g17
sg18
g4
(g17
g6
Ntp577
Rp578
(dp579
g14
g22
sbsg23
F39999.9999622768
sbsg32
g4
(g5
g6
Ntp580
Rp581
(dp582
g10
g11
sg12
g13
sg14
S'extwes.c_bou_est'
p583
sg16
g17
sg18
g4
(g17
g6
Ntp584
Rp585
(dp586
g14
g22
sbsg23
F0.02
sbsg40
g4
(g5
g6
Ntp587
Rp588
(dp589
g10
g11
sg12
g13
sg14
S'extwes.c_bou_est'
p590
sg16
g17
sg18
g4
(g17
g6
Ntp591
Rp592
(dp593
g14
g22
sbsg23
F5000.0
sbssS'eas.c_int'
p594
(dp595
g3
g4
(g5
g6
Ntp596
Rp597
(dp598
g10
g11
sg12
g13
sg14
S'eas.c_int_est'
p599
sg16
g17
sg18
g4
(g17
g6
Ntp600
Rp601
(dp602
g14
g22
sbsg23
F300000.0
sbsg24
g4
(g5
g6
Ntp603
Rp604
(dp605
g10
g11
sg12
g13
sg14
S'eas.c_int_est'
p606
sg16
g17
sg18
g4
(g17
g6
Ntp607
Rp608
(dp609
g14
g22
sbsg23
F89866.2441005221
sbsg32
g4
(g5
g6
Ntp610
Rp611
(dp612
g10
g11
sg12
g13
sg14
S'eas.c_int_est'
p613
sg16
g17
sg18
g4
(g17
g6
Ntp614
Rp615
(dp616
g14
g22
sbsg23
F0.02
sbsg40
g4
(g5
g6
Ntp617
Rp618
(dp619
g10
g11
sg12
g13
sg14
S'eas.c_int_est'
p620
sg16
g17
sg18
g4
(g17
g6
Ntp621
Rp622
(dp623
g14
g22
sbsg23
F50000.0
sbssS'hal.r_int'
p624
(dp625
g3
g4
(g5
g6
Ntp626
Rp627
(dp628
g10
g11
sg12
g53
sg14
S'hal.r_int_est'
p629
sg16
g55
sg18
g4
(g55
g6
Ntp630
Rp631
(dp632
g14
g59
sbsg23
F0.4
sbsg24
g4
(g5
g6
Ntp633
Rp634
(dp635
g10
g11
sg12
g53
sg14
S'hal.r_int_est'
p636
sg16
g55
sg18
g4
(g55
g6
Ntp637
Rp638
(dp639
g14
g59
sbsg23
F0.399999999970074
sbsg32
g4
(g5
g6
Ntp640
Rp641
(dp642
g10
g11
sg12
g53
sg14
S'hal.r_int_est'
p643
sg16
g55
sg18
g4
(g55
g6
Ntp644
Rp645
(dp646
g14
g59
sbsg23
F0.02
sbsg40
g4
(g5
g6
Ntp647
Rp648
(dp649
g10
g11
sg12
g53
sg14
S'hal.r_int_est'
p650
sg16
g55
sg18
g4
(g55
g6
Ntp651
Rp652
(dp653
g14
g59
sbsg23
F0.05
sbssS'wineas.r_win'
p654
(dp655
g3
g4
(g5
g6
Ntp656
Rp657
(dp658
g10
g11
sg12
g53
sg14
S'wineas.r_win_est'
p659
sg16
g55
sg18
g4
(g55
g6
Ntp660
Rp661
(dp662
g14
g59
sbsg23
F0.8
sbsg24
g4
(g5
g6
Ntp663
Rp664
(dp665
g10
g11
sg12
g53
sg14
S'wineas.r_win_est'
p666
sg16
g55
sg18
g4
(g55
g6
Ntp667
Rp668
(dp669
g14
g59
sbsg23
F0.577310894868779
sbsg32
g4
(g5
g6
Ntp670
Rp671
(dp672
g10
g11
sg12
g53
sg14
S'wineas.r_win_est'
p673
sg16
g55
sg18
g4
(g55
g6
Ntp674
Rp675
(dp676
g14
g59
sbsg23
F0.02
sbsg40
g4
(g5
g6
Ntp677
Rp678
(dp679
g10
g11
sg12
g53
sg14
S'wineas.r_win_est'
p680
sg16
g55
sg18
g4
(g55
g6
Ntp681
Rp682
(dp683
g14
g59
sbsg23
F0.1
sbssS'extwes.abs'
p684
(dp685
g3
g4
(g5
g6
Ntp686
Rp687
(dp688
g10
g11
sg12
g176
sg14
S'extwes.abs_est'
p689
sg16
g178
sg18
g4
(g178
g6
Ntp690
Rp691
(dp692
g14
g182
sbsg23
F1.0
sbsg24
g4
(g5
g6
Ntp693
Rp694
(dp695
g10
g11
sg12
g176
sg14
S'extwes.abs_est'
p696
sg16
g178
sg18
g4
(g178
g6
Ntp697
Rp698
(dp699
g14
g182
sbsg23
F0.999999903413265
sbsg32
g4
(g5
g6
Ntp700
Rp701
(dp702
g10
g11
sg12
g176
sg14
S'extwes.abs_est'
p703
sg16
g178
sg18
g4
(g178
g6
Ntp704
Rp705
(dp706
g14
g182
sbsg23
F0.02
sbsg40
g4
(g5
g6
Ntp707
Rp708
(dp709
g10
g11
sg12
g176
sg14
S'extwes.abs_est'
p710
sg16
g178
sg18
g4
(g178
g6
Ntp711
Rp712
(dp713
g14
g182
sbsg23
F0.0
sbssS'adjeas.c_bou'
p714
(dp715
g3
g4
(g5
g6
Ntp716
Rp717
(dp718
g10
g11
sg12
g13
sg14
S'adjeas.c_bou_est'
p719
sg16
g17
sg18
g4
(g17
g6
Ntp720
Rp721
(dp722
g14
g22
sbsg23
F25000.0
sbsg24
g4
(g5
g6
Ntp723
Rp724
(dp725
g10
g11
sg12
g13
sg14
S'adjeas.c_bou_est'
p726
sg16
g17
sg18
g4
(g17
g6
Ntp727
Rp728
(dp729
g14
g22
sbsg23
F24999.9996239714
sbsg32
g4
(g5
g6
Ntp730
Rp731
(dp732
g10
g11
sg12
g13
sg14
S'adjeas.c_bou_est'
p733
sg16
g17
sg18
g4
(g17
g6
Ntp734
Rp735
(dp736
g14
g22
sbsg23
F0.02
sbsg40
g4
(g5
g6
Ntp737
Rp738
(dp739
g10
g11
sg12
g13
sg14
S'adjeas.c_bou_est'
p740
sg16
g17
sg18
g4
(g17
g6
Ntp741
Rp742
(dp743
g14
g22
sbsg23
F5000.0
sbssS'adjwes.r_adj'
p744
(dp745
g3
g4
(g5
g6
Ntp746
Rp747
(dp748
g10
g11
sg12
g53
sg14
S'adjwes.r_adj_est'
p749
sg16
g55
sg18
g4
(g55
g6
Ntp750
Rp751
(dp752
g14
g59
sbsg23
F0.9
sbsg24
g4
(g5
g6
Ntp753
Rp754
(dp755
g10
g11
sg12
g53
sg14
S'adjwes.r_adj_est'
p756
sg16
g55
sg18
g4
(g55
g6
Ntp757
Rp758
(dp759
g14
g59
sbsg23
F0.865003211466545
sbsg32
g4
(g5
g6
Ntp760
Rp761
(dp762
g10
g11
sg12
g53
sg14
S'adjwes.r_adj_est'
p763
sg16
g55
sg18
g4
(g55
g6
Ntp764
Rp765
(dp766
g14
g59
sbsg23
F0.02
sbsg40
g4
(g5
g6
Ntp767
Rp768
(dp769
g10
g11
sg12
g53
sg14
S'adjwes.r_adj_est'
p770
sg16
g55
sg18
g4
(g55
g6
Ntp771
Rp772
(dp773
g14
g59
sbsg23
F0.05
sbssS'adjwes.r_zon'
p774
(dp775
g3
g4
(g5
g6
Ntp776
Rp777
(dp778
g10
g11
sg12
g53
sg14
S'adjwes.r_zon_est'
p779
sg16
g55
sg18
g4
(g55
g6
Ntp780
Rp781
(dp782
g14
g59
sbsg23
F0.9
sbsg24
g4
(g5
g6
Ntp783
Rp784
(dp785
g10
g11
sg12
g53
sg14
S'adjwes.r_zon_est'
p786
sg16
g55
sg18
g4
(g55
g6
Ntp787
Rp788
(dp789
g14
g59
sbsg23
F0.0500000015598704
sbsg32
g4
(g5
g6
Ntp790
Rp791
(dp792
g10
g11
sg12
g53
sg14
S'adjwes.r_zon_est'
p793
sg16
g55
sg18
g4
(g55
g6
Ntp794
Rp795
(dp796
g14
g59
sbsg23
F0.02
sbsg40
g4
(g5
g6
Ntp797
Rp798
(dp799
g10
g11
sg12
g53
sg14
S'adjwes.r_zon_est'
p800
sg16
g55
sg18
g4
(g55
g6
Ntp801
Rp802
(dp803
g14
g59
sbsg23
F0.05
sbssS'winwes.r_win'
p804
(dp805
g3
g4
(g5
g6
Ntp806
Rp807
(dp808
g10
g11
sg12
g53
sg14
S'winwes.r_win_est'
p809
sg16
g55
sg18
g4
(g55
g6
Ntp810
Rp811
(dp812
g14
g59
sbsg23
F0.8
sbsg24
g4
(g5
g6
Ntp813
Rp814
(dp815
g10
g11
sg12
g53
sg14
S'winwes.r_win_est'
p816
sg16
g55
sg18
g4
(g55
g6
Ntp817
Rp818
(dp819
g14
g59
sbsg23
F0.746884879363822
sbsg32
g4
(g5
g6
Ntp820
Rp821
(dp822
g10
g11
sg12
g53
sg14
S'winwes.r_win_est'
p823
sg16
g55
sg18
g4
(g55
g6
Ntp824
Rp825
(dp826
g14
g59
sbsg23
F0.02
sbsg40
g4
(g5
g6
Ntp827
Rp828
(dp829
g10
g11
sg12
g53
sg14
S'winwes.r_win_est'
p830
sg16
g55
sg18
g4
(g55
g6
Ntp831
Rp832
(dp833
g14
g59
sbsg23
F0.1
sbss.